Certificate:
    Data:
        Version: 3 (0x2)
        Serial Number: 9988965047835833589 (0x8a9feec9860c34f5)
    Signature Algorithm: sha256WithRSAEncryption
        Issuer: C=RU, ST=Russia, O=Ryctoic, OU=dba, CN=pg/ca
        Validity
            Not Before: Dec 18 18:37:12 2015 GMT
            Not After : May  5 18:37:12 2043 GMT
        Subject: C=RU, ST=Russia, L=Moscow, O=Ryctoic, OU=web, CN=local.ryctoic.com
        Subject Public Key Info:
            Public Key Algorithm: rsaEncryption
                Public-Key: (2048 bit)
                Modulus:
                    00:b3:04:c0:ab:32:bf:55:85:95:c7:f0:24:d0:fc:
                    6d:33:a0:2c:4b:21:76:d7:07:89:5c:35:da:39:7d:
                    89:ee:cc:0c:95:e2:79:d7:ed:6e:7a:6d:b5:b3:87:
                    57:28:14:d9:8c:e8:3f:1f:dd:eb:19:8d:07:29:03:
                    76:69:4f:1b:ef:d1:67:c8:a0:7b:6f:6e:1e:f8:39:
                    75:f0:ca:17:82:cb:3f:67:5d:9e:09:74:f3:5d:d6:
                    e0:49:03:5b:b4:ea:96:e9:83:57:e6:b6:d7:51:21:
                    c7:27:11:c5:d2:06:39:c4:73:a7:2d:1f:11:aa:c9:
                    a3:13:83:44:f7:aa:bc:b6:78:bd:e6:b6:11:1d:ae:
                    b9:98:bc:fe:6a:7a:d7:ee:97:eb:55:47:88:05:65:
                    bf:1f:81:d6:40:9b:94:f9:a2:a3:4c:70:a9:3c:ca:
                    2d:cf:da:f0:9a:6a:cc:03:70:a1:59:f3:0e:c9:87:
                    df:2e:2f:da:14:c4:af:16:f6:53:d7:9b:b7:6c:f6:
                    a8:bb:11:33:7e:c9:33:d7:b9:49:52:be:b6:ba:c5:
                    78:fc:69:c5:da:a7:bf:0f:e3:63:38:de:98:58:7b:
                    a7:b2:c7:e0:03:08:a7:8c:5a:0e:3b:43:5d:7c:27:
                    63:74:1f:5a:76:35:20:18:b2:89:81:55:58:be:3d:
                    4f:41
                Exponent: 65537 (0x10001)
        X509v3 extensions:
            X509v3 Basic Constraints: 
                CA:FALSE
            Netscape Comment: 
                OpenSSL Generated Certificate
            X509v3 Subject Key Identifier: 
                C5:C9:96:EC:A9:B3:DE:80:FA:AB:60:D1:D2:D5:C2:04:F5:9D:D9:31
            X509v3 Authority Key Identifier: 
                keyid:67:C1:C9:5E:58:25:9F:D5:F1:F9:79:5D:F1:CC:D2:D5:54:2C:90:D4

    Signature Algorithm: sha256WithRSAEncryption
         7a:5d:41:b4:46:34:f9:d9:fc:41:9e:f8:fe:4c:9e:d8:98:3f:
         a2:1b:3f:4a:4d:6f:70:6f:f1:5f:c6:41:b3:cb:96:ee:b5:c3:
         c3:fc:2e:23:b0:e1:33:ab:e4:69:8f:48:57:81:f3:96:be:b8:
         b2:da:2d:f7:f3:57:68:ec:df:41:a2:9f:17:79:ac:db:cf:f4:
         d5:e8:c5:dd:9a:14:57:36:92:68:99:d8:6a:0d:fd:d8:59:c0:
         92:68:e2:b6:e6:47:7d:eb:1c:af:99:d6:7a:c7:4b:69:90:3e:
         5d:97:e7:61:85:97:78:88:f2:86:5b:68:6c:b4:60:42:51:57:
         83:4d:0e:00:0c:d3:62:2f:dc:24:d0:d4:7f:89:52:fd:0e:a2:
         5f:1f:ed:1b:4c:1c:62:48:c5:11:53:5e:9c:03:88:a3:07:87:
         a7:be:59:d6:e4:40:d3:1a:bd:b3:60:27:1a:c3:c8:be:bb:5a:
         50:64:97:e5:38:ef:ff:df:ad:ec:34:54:17:c1:6f:7a:ee:37:
         f5:27:e7:b7:0e:97:10:2b:92:fe:90:ae:e0:ac:5a:4b:fa:ef:
         54:cc:0f:e8:86:90:17:9b:62:1a:f6:8e:9f:a9:f5:4c:2c:c9:
         78:69:df:26:75:fb:b5:a9:27:3d:1c:d8:3b:89:cf:37:37:98:
         41:d0:6a:31
-----BEGIN CERTIFICATE-----
MIIDtzCCAp+gAwIBAgIJAIqf7smGDDT1MA0GCSqGSIb3DQEBCwUAME4xCzAJBgNV
BAYTAlJVMQ8wDQYDVQQIDAZSdXNzaWExEDAOBgNVBAoMB1J5Y3RvaWMxDDAKBgNV
BAsMA2RiYTEOMAwGA1UEAwwFcGcvY2EwHhcNMTUxMjE4MTgzNzEyWhcNNDMwNTA1
MTgzNzEyWjBrMQswCQYDVQQGEwJSVTEPMA0GA1UECAwGUnVzc2lhMQ8wDQYDVQQH
DAZNb3Njb3cxEDAOBgNVBAoMB1J5Y3RvaWMxDDAKBgNVBAsMA3dlYjEaMBgGA1UE
AwwRbG9jYWwucnljdG9pYy5jb20wggEiMA0GCSqGSIb3DQEBAQUAA4IBDwAwggEK
AoIBAQCzBMCrMr9VhZXH8CTQ/G0zoCxLIXbXB4lcNdo5fYnuzAyV4nnX7W56bbWz
h1coFNmM6D8f3esZjQcpA3ZpTxvv0WfIoHtvbh74OXXwyheCyz9nXZ4JdPNd1uBJ
A1u06pbpg1fmttdRIccnEcXSBjnEc6ctHxGqyaMTg0T3qry2eL3mthEdrrmYvP5q
etful+tVR4gFZb8fgdZAm5T5oqNMcKk8yi3P2vCaaswDcKFZ8w7Jh98uL9oUxK8W
9lPXm7ds9qi7ETN+yTPXuUlSvra6xXj8acXap78P42M43phYe6eyx+ADCKeMWg47
Q118J2N0H1p2NSAYsomBVVi+PU9BAgMBAAGjezB5MAkGA1UdEwQCMAAwLAYJYIZI
AYb4QgENBB8WHU9wZW5TU0wgR2VuZXJhdGVkIENlcnRpZmljYXRlMB0GA1UdDgQW
BBTFyZbsqbPegPqrYNHS1cIE9Z3ZMTAfBgNVHSMEGDAWgBRnwcleWCWf1fH5eV3x
zNLVVCyQ1DANBgkqhkiG9w0BAQsFAAOCAQEAel1BtEY0+dn8QZ74/kye2Jg/ohs/
Sk1vcG/xX8ZBs8uW7rXDw/wuI7DhM6vkaY9IV4Hzlr64stot9/NXaOzfQaKfF3ms
28/01ejF3ZoUVzaSaJnYag392FnAkmjituZHfescr5nWesdLaZA+XZfnYYWXeIjy
hltobLRgQlFXg00OAAzTYi/cJNDUf4lS/Q6iXx/tG0wcYkjFEVNenAOIoweHp75Z
1uRA0xq9s2AnGsPIvrtaUGSX5Tjv/9+t7DRUF8Fveu439Sfntw6XECuS/pCu4Kxa
S/rvVMwP6IaQF5tiGvaOn6n1TCzJeGnfJnX7taknPRzYO4nPNzeYQdBqMQ==
-----END CERTIFICATE-----
