Certificate:
    Data:
        Version: 3 (0x2)
        Serial Number: 9988965047835833586 (0x8a9feec9860c34f2)
    Signature Algorithm: sha256WithRSAEncryption
        Issuer: C=RU, ST=Russia, O=Ryctoic, OU=dba, CN=pg/ca
        Validity
            Not Before: Dec  3 12:57:19 2015 GMT
            Not After : Apr 20 12:57:19 2043 GMT
        Subject: C=RU, ST=Russia, O=Ryctoic, OU=dba, CN=pg/ca
        Subject Public Key Info:
            Public Key Algorithm: rsaEncryption
                Public-Key: (2048 bit)
                Modulus:
                    00:ab:61:09:5e:cd:5f:03:38:b2:fd:73:e4:19:4f:
                    22:b3:fe:7e:52:44:ac:2a:36:6f:7e:0e:3c:97:9b:
                    6d:04:1d:90:ab:87:40:7e:4c:bc:a2:c1:a0:78:d7:
                    21:8c:1d:87:ed:29:52:bc:ea:98:fe:27:be:fa:42:
                    c8:9b:f1:89:7d:45:16:e2:66:26:d5:f3:f3:30:6b:
                    55:a3:4e:85:86:15:73:5d:6c:dd:5c:54:88:f7:cd:
                    10:31:b8:c6:94:5d:49:fd:cf:68:94:86:70:47:f2:
                    db:63:ae:17:ab:78:cd:c3:3a:5d:07:75:17:ee:b0:
                    3a:ff:bd:80:44:dd:e4:6f:fa:25:a0:18:5e:4c:3f:
                    26:d1:fe:f2:68:a5:68:d0:ae:b1:ee:f7:43:d1:4d:
                    55:ea:59:48:a7:a6:9c:98:dc:ff:47:a4:51:e5:27:
                    9e:e8:5b:72:8e:76:d4:64:73:26:53:2c:c6:de:fb:
                    f3:70:1f:14:bc:83:c7:af:96:e7:18:2e:43:98:f8:
                    92:21:ba:bf:fc:21:9e:56:88:82:30:e1:45:59:1e:
                    11:fc:4a:fb:33:f8:70:cc:36:db:9a:a7:1a:16:82:
                    e5:e1:03:c2:ba:9a:31:a4:3e:19:83:d6:73:84:25:
                    f8:8b:0b:b8:72:5e:4a:c8:8d:13:f3:9d:e6:ee:c5:
                    80:c3
                Exponent: 65537 (0x10001)
        X509v3 extensions:
            X509v3 Subject Key Identifier: 
                67:C1:C9:5E:58:25:9F:D5:F1:F9:79:5D:F1:CC:D2:D5:54:2C:90:D4
            X509v3 Authority Key Identifier: 
                keyid:67:C1:C9:5E:58:25:9F:D5:F1:F9:79:5D:F1:CC:D2:D5:54:2C:90:D4

            X509v3 Basic Constraints: 
                CA:TRUE
    Signature Algorithm: sha256WithRSAEncryption
         8b:44:e2:e2:a8:5b:37:00:aa:83:1b:4b:92:37:1c:d4:db:46:
         bd:9b:0f:b7:56:d1:93:a3:30:8c:ea:2b:af:5b:3c:c8:f9:63:
         82:77:c2:1e:d8:c2:0b:14:ff:03:4f:cc:41:f6:8c:d9:e6:ad:
         fe:0d:cd:4f:b3:66:61:b9:08:cb:57:69:d9:d4:42:01:77:72:
         4c:4d:70:fa:07:11:fb:de:0c:4b:ad:48:f8:5e:31:8f:1b:0f:
         dc:4b:74:a7:d2:f4:60:da:f8:08:81:83:e8:66:c3:e9:d3:05:
         bd:93:b8:3c:72:dc:1d:ac:00:e1:ec:d5:40:95:05:09:6b:09:
         09:4d:13:62:69:ac:8e:89:62:bf:bb:c7:a7:6a:08:97:6b:74:
         2a:7c:20:33:e3:dd:8e:dd:b7:dc:f0:4f:ef:3e:26:f7:89:22:
         63:dd:7b:bf:29:48:42:bc:17:c8:6e:45:0d:94:65:0b:de:8c:
         89:9b:58:e7:4c:ab:54:60:66:dd:88:50:cb:de:d0:5a:47:46:
         35:d0:03:14:b9:4c:b1:91:97:6a:5a:a3:58:26:09:95:9b:aa:
         32:6b:df:1d:9a:2d:2e:c8:6d:4b:3b:b0:dc:5d:4a:44:dd:c9:
         df:f7:8e:42:4c:de:2e:69:f8:a8:ef:03:72:e7:ff:64:70:e9:
         27:1f:09:c7
-----BEGIN CERTIFICATE-----
MIIDbzCCAlegAwIBAgIJAIqf7smGDDTyMA0GCSqGSIb3DQEBCwUAME4xCzAJBgNV
BAYTAlJVMQ8wDQYDVQQIDAZSdXNzaWExEDAOBgNVBAoMB1J5Y3RvaWMxDDAKBgNV
BAsMA2RiYTEOMAwGA1UEAwwFcGcvY2EwHhcNMTUxMjAzMTI1NzE5WhcNNDMwNDIw
MTI1NzE5WjBOMQswCQYDVQQGEwJSVTEPMA0GA1UECAwGUnVzc2lhMRAwDgYDVQQK
DAdSeWN0b2ljMQwwCgYDVQQLDANkYmExDjAMBgNVBAMMBXBnL2NhMIIBIjANBgkq
hkiG9w0BAQEFAAOCAQ8AMIIBCgKCAQEAq2EJXs1fAziy/XPkGU8is/5+UkSsKjZv
fg48l5ttBB2Qq4dAfky8osGgeNchjB2H7SlSvOqY/ie++kLIm/GJfUUW4mYm1fPz
MGtVo06FhhVzXWzdXFSI980QMbjGlF1J/c9olIZwR/LbY64Xq3jNwzpdB3UX7rA6
/72ARN3kb/oloBheTD8m0f7yaKVo0K6x7vdD0U1V6llIp6acmNz/R6RR5See6Fty
jnbUZHMmUyzG3vvzcB8UvIPHr5bnGC5DmPiSIbq//CGeVoiCMOFFWR4R/Er7M/hw
zDbbmqcaFoLl4QPCupoxpD4Zg9ZzhCX4iwu4cl5KyI0T853m7sWAwwIDAQABo1Aw
TjAdBgNVHQ4EFgQUZ8HJXlgln9Xx+Xld8czS1VQskNQwHwYDVR0jBBgwFoAUZ8HJ
Xlgln9Xx+Xld8czS1VQskNQwDAYDVR0TBAUwAwEB/zANBgkqhkiG9w0BAQsFAAOC
AQEAi0Ti4qhbNwCqgxtLkjcc1NtGvZsPt1bRk6MwjOorr1s8yPljgnfCHtjCCxT/
A0/MQfaM2eat/g3NT7NmYbkIy1dp2dRCAXdyTE1w+gcR+94MS61I+F4xjxsP3Et0
p9L0YNr4CIGD6GbD6dMFvZO4PHLcHawA4ezVQJUFCWsJCU0TYmmsjoliv7vHp2oI
l2t0KnwgM+Pdjt233PBP7z4m94kiY917vylIQrwXyG5FDZRlC96MiZtY50yrVGBm
3YhQy97QWkdGNdADFLlMsZGXalqjWCYJlZuqMmvfHZotLshtSzuw3F1KRN3J3/eO
QkzeLmn4qO8Dcuf/ZHDpJx8Jxw==
-----END CERTIFICATE-----
