Certificate:
    Data:
        Version: 3 (0x2)
        Serial Number: 9988965047835833590 (0x8a9feec9860c34f6)
    Signature Algorithm: sha256WithRSAEncryption
        Issuer: C=RU, ST=Russia, O=Ryctoic, OU=dba, CN=pg/ca
        Validity
            Not Before: Aug 24 18:47:59 2016 GMT
            Not After : Jan 10 18:47:59 2044 GMT
        Subject: C=RU, ST=Russia, L=Moscow, O=Ryctoic, OU=dba, CN=pg/user/client
        Subject Public Key Info:
            Public Key Algorithm: rsaEncryption
                Public-Key: (2048 bit)
                Modulus:
                    00:b2:95:f3:e1:cb:c1:88:10:82:6c:c8:ae:a8:b3:
                    ca:40:08:dd:08:5b:e6:81:62:42:4d:02:8c:c1:ef:
                    54:fc:42:31:cc:c2:c1:c5:4b:16:a0:a2:7a:42:e7:
                    87:22:09:a8:d7:0a:90:33:5c:fe:6a:eb:24:15:b3:
                    ac:02:e0:1c:1c:27:18:d8:cf:f1:03:f9:32:1c:1f:
                    55:f9:0b:a0:19:08:84:4b:62:5e:4a:e4:59:22:48:
                    87:bd:d6:d1:bd:8a:ac:1a:01:8b:93:fd:7f:3e:cb:
                    24:64:66:4f:9b:e2:12:73:54:b4:9d:76:41:94:48:
                    20:60:5c:d9:03:63:10:36:1e:7e:de:d4:2a:e3:3b:
                    38:f6:de:03:4e:96:d5:7c:5e:01:db:1b:db:06:df:
                    c8:3e:c7:80:ae:bd:c2:ca:7f:ea:5a:72:f1:61:04:
                    65:2d:74:69:07:f0:65:56:ae:46:f1:17:36:f6:fc:
                    8a:00:27:b6:e2:85:88:a8:5b:e3:42:ce:9a:f9:30:
                    f0:76:e1:da:c3:df:03:b1:d4:09:37:61:95:01:63:
                    ea:cf:6e:09:e8:55:3d:26:76:d5:1b:b3:c7:28:9f:
                    55:5c:8e:93:ca:93:f5:e1:01:98:ce:ba:aa:2e:fa:
                    b8:c9:b7:03:d0:37:f1:31:fe:30:4e:a3:8f:f7:25:
                    69:6d
                Exponent: 65537 (0x10001)
        X509v3 extensions:
            X509v3 Basic Constraints: 
                CA:FALSE
            Netscape Comment: 
                OpenSSL Generated Certificate
            X509v3 Subject Key Identifier: 
                00:62:B1:C7:4D:4E:34:93:BF:0A:13:02:E8:EC:BF:B1:3A:0A:2D:A5
            X509v3 Authority Key Identifier: 
                keyid:67:C1:C9:5E:58:25:9F:D5:F1:F9:79:5D:F1:CC:D2:D5:54:2C:90:D4

    Signature Algorithm: sha256WithRSAEncryption
         54:cc:4e:98:e1:10:ba:a5:43:ac:2b:d4:50:93:52:0a:64:dd:
         a8:17:86:2d:13:15:72:03:19:bd:69:9f:06:a1:82:fa:80:c1:
         c2:36:5c:c1:9d:0e:75:1a:43:2b:8e:3b:51:ae:fb:bf:d2:6d:
         e9:ab:0d:da:a1:89:66:62:09:5e:a1:d4:ee:17:9c:8e:df:0f:
         13:5d:90:0e:56:bd:b4:b7:4e:9c:2a:88:55:26:cb:56:66:94:
         26:bf:a9:9c:c8:42:af:8c:7b:89:bf:75:62:5e:0c:09:55:66:
         8a:7d:4c:c3:9c:b7:cd:95:e0:50:61:02:72:de:ed:6e:02:52:
         4e:d0:b9:22:07:85:08:92:6d:96:54:09:c8:26:81:dc:c2:b0:
         25:45:56:5d:63:97:db:d4:0b:09:10:c6:5c:03:7c:5e:ff:94:
         06:47:da:27:89:39:ce:f6:e5:fb:b3:e4:ca:ee:3a:ee:e4:30:
         eb:69:26:b6:62:7b:02:be:ab:44:b4:67:9b:69:19:d1:ca:a2:
         f0:24:5a:57:7f:4a:a6:e4:c7:e3:01:b5:ea:9c:0d:1a:f0:b3:
         1e:e4:cb:98:2a:78:f5:c1:ce:11:bd:35:e2:36:09:c8:1e:eb:
         56:22:82:6b:61:89:b3:ab:9d:0a:ce:38:ab:93:f8:67:d0:e4:
         ed:d3:87:d3
-----BEGIN CERTIFICATE-----
MIIDtDCCApygAwIBAgIJAIqf7smGDDT2MA0GCSqGSIb3DQEBCwUAME4xCzAJBgNV
BAYTAlJVMQ8wDQYDVQQIDAZSdXNzaWExEDAOBgNVBAoMB1J5Y3RvaWMxDDAKBgNV
BAsMA2RiYTEOMAwGA1UEAwwFcGcvY2EwHhcNMTYwODI0MTg0NzU5WhcNNDQwMTEw
MTg0NzU5WjBoMQswCQYDVQQGEwJSVTEPMA0GA1UECAwGUnVzc2lhMQ8wDQYDVQQH
DAZNb3Njb3cxEDAOBgNVBAoMB1J5Y3RvaWMxDDAKBgNVBAsMA2RiYTEXMBUGA1UE
AwwOcGcvdXNlci9jbGllbnQwggEiMA0GCSqGSIb3DQEBAQUAA4IBDwAwggEKAoIB
AQCylfPhy8GIEIJsyK6os8pACN0IW+aBYkJNAozB71T8QjHMwsHFSxagonpC54ci
CajXCpAzXP5q6yQVs6wC4BwcJxjYz/ED+TIcH1X5C6AZCIRLYl5K5FkiSIe91tG9
iqwaAYuT/X8+yyRkZk+b4hJzVLSddkGUSCBgXNkDYxA2Hn7e1CrjOzj23gNOltV8
XgHbG9sG38g+x4CuvcLKf+pacvFhBGUtdGkH8GVWrkbxFzb2/IoAJ7bihYioW+NC
zpr5MPB24drD3wOx1Ak3YZUBY+rPbgnoVT0mdtUbs8con1VcjpPKk/XhAZjOuqou
+rjJtwPQN/Ex/jBOo4/3JWltAgMBAAGjezB5MAkGA1UdEwQCMAAwLAYJYIZIAYb4
QgENBB8WHU9wZW5TU0wgR2VuZXJhdGVkIENlcnRpZmljYXRlMB0GA1UdDgQWBBQA
YrHHTU40k78KEwLo7L+xOgotpTAfBgNVHSMEGDAWgBRnwcleWCWf1fH5eV3xzNLV
VCyQ1DANBgkqhkiG9w0BAQsFAAOCAQEAVMxOmOEQuqVDrCvUUJNSCmTdqBeGLRMV
cgMZvWmfBqGC+oDBwjZcwZ0OdRpDK447Ua77v9Jt6asN2qGJZmIJXqHU7hecjt8P
E12QDla9tLdOnCqIVSbLVmaUJr+pnMhCr4x7ib91Yl4MCVVmin1Mw5y3zZXgUGEC
ct7tbgJSTtC5IgeFCJJtllQJyCaB3MKwJUVWXWOX29QLCRDGXAN8Xv+UBkfaJ4k5
zvbl+7Pkyu467uQw62kmtmJ7Ar6rRLRnm2kZ0cqi8CRaV39KpuTH4wG16pwNGvCz
HuTLmCp49cHOEb014jYJyB7rViKCa2GJs6udCs44q5P4Z9Dk7dOH0w==
-----END CERTIFICATE-----
